target datalayout = "e-m:e-p270:32:32-p271:32:32-p272:64:64-i64:64-i128:128-f80:128-n8:16:32:64-S128"
target triple = "x86_64-unknown-linux-gnu"

%struct.grpc_channel_filter = type { ptr, ptr, ptr, ptr, i64, ptr, ptr, ptr, i64, ptr, ptr, ptr, ptr, ptr }
%struct.grpc_channel_element = type { ptr, ptr }

; Function Attrs: mustprogress uwtable
define void @_Z20grpc_channel_next_opP20grpc_channel_elementP17grpc_transport_op(ptr noundef %elem, ptr noundef %op) #5 {
entry:
  %elem.addr = alloca ptr, align 8
  %op.addr = alloca ptr, align 8
  %next_elem = alloca ptr, align 8
  store ptr %elem, ptr %elem.addr, align 8
  store ptr %op, ptr %op.addr, align 8
  %0 = load ptr, ptr %elem.addr, align 8
  %add.ptr = getelementptr inbounds %struct.grpc_channel_element, ptr %0, i64 1
  store ptr %add.ptr, ptr %next_elem, align 8
  %1 = load ptr, ptr %next_elem, align 8
  %filter = getelementptr inbounds %struct.grpc_channel_element, ptr %1, i32 0, i32 0
  %2 = load ptr, ptr %filter, align 8
  %start_transport_op = getelementptr inbounds %struct.grpc_channel_filter, ptr %2, i32 0, i32 3
  %3 = load ptr, ptr %start_transport_op, align 8
  %4 = load ptr, ptr %next_elem, align 8
  %5 = load ptr, ptr %op.addr, align 8
  call void %3(ptr noundef %4, ptr noundef %5)
  ret void
}