; Function Attrs: mustprogress uwtable
define void @_Z20grpc_channel_next_opP20grpc_channel_elementP17grpc_transport_op(ptr noundef %elem, ptr noundef %op) local_unnamed_addr #6 {
entry:
  %add.ptr = getelementptr inbounds i8, ptr %elem, i64 16
  %0 = load ptr, ptr %add.ptr, align 8
  %start_transport_op = getelementptr inbounds i8, ptr %0, i64 24
  %1 = load ptr, ptr %start_transport_op, align 8
  tail call void %1(ptr noundef nonnull %add.ptr, ptr noundef %op)
  ret void
}